(lp0
F2.0
aF3.0
aF4.0
aF5.0
aF6.0
aF7.0
aF8.0
aF9.0
aF10.0
aF11.0
aF12.0
aF13.0
aF14.0
aF15.0
aF16.0
aF17.0
aF18.0
aF19.0
aF20.0
aF21.0
aF22.0
aF23.0
aF24.0
a.(lp0
(F3.0
F2.0
S''
p1
tp2
a(F2.0
F3.0
g1
tp3
a(F5.0
F4.0
g1
tp4
a(F4.0
F5.0
g1
tp5
a(F7.0
F6.0
g1
tp6
a(F6.0
F7.0
g1
tp7
a(F2.0
F9.0
g1
tp8
a(F3.0
F9.0
g1
tp9
a(F4.0
F9.0
g1
tp10
a(F5.0
F9.0
g1
tp11
a(F2.0
F10.0
g1
tp12
a(F3.0
F10.0
g1
tp13
a(F6.0
F10.0
g1
tp14
a(F7.0
F10.0
g1
tp15
a(F9.0
F10.0
g1
tp16
a(F2.0
F11.0
g1
tp17
a(F3.0
F11.0
g1
tp18
a(F4.0
F11.0
g1
tp19
a(F5.0
F11.0
g1
tp20
a(F9.0
F11.0
g1
tp21
a(F10.0
F11.0
g1
tp22
a(F15.0
F11.0
g1
tp23
a(F2.0
F12.0
g1
tp24
a(F3.0
F12.0
g1
tp25
a(F8.0
F12.0
g1
tp26
a(F9.0
F12.0
g1
tp27
a(F10.0
F12.0
g1
tp28
a(F4.0
F13.0
g1
tp29
a(F5.0
F13.0
g1
tp30
a(F6.0
F13.0
g1
tp31
a(F7.0
F13.0
g1
tp32
a(F9.0
F13.0
g1
tp33
a(F10.0
F13.0
g1
tp34
a(F11.0
F13.0
g1
tp35
a(F15.0
F13.0
g1
tp36
a(F2.0
F14.0
g1
tp37
a(F3.0
F14.0
g1
tp38
a(F6.0
F14.0
g1
tp39
a(F7.0
F14.0
g1
tp40
a(F9.0
F14.0
g1
tp41
a(F10.0
F14.0
g1
tp42
a(F11.0
F14.0
g1
tp43
a(F13.0
F14.0
g1
tp44
a(F15.0
F14.0
g1
tp45
a(F20.0
F14.0
g1
tp46
a(F9.0
F15.0
g1
tp47
a(F10.0
F15.0
g1
tp48
a(F16.0
F15.0
g1
tp49
a(F4.0
F17.0
g1
tp50
a(F5.0
F17.0
g1
tp51
a(F8.0
F17.0
g1
tp52
a(F9.0
F17.0
g1
tp53
a(F10.0
F17.0
g1
tp54
a(F11.0
F17.0
g1
tp55
a(F13.0
F17.0
g1
tp56
a(F15.0
F17.0
g1
tp57
a(F4.0
F18.0
g1
tp58
a(F5.0
F18.0
g1
tp59
a(F6.0
F18.0
g1
tp60
a(F7.0
F18.0
g1
tp61
a(F9.0
F18.0
g1
tp62
a(F10.0
F18.0
g1
tp63
a(F11.0
F18.0
g1
tp64
a(F13.0
F18.0
g1
tp65
a(F14.0
F18.0
g1
tp66
a(F15.0
F18.0
g1
tp67
a(F20.0
F18.0
g1
tp68
a(F9.0
F19.0
g1
tp69
a(F10.0
F19.0
g1
tp70
a(F11.0
F19.0
g1
tp71
a(F13.0
F19.0
g1
tp72
a(F14.0
F19.0
g1
tp73
a(F15.0
F19.0
g1
tp74
a(F18.0
F19.0
g1
tp75
a(F20.0
F19.0
g1
tp76
a(F22.0
F19.0
g1
tp77
a(F9.0
F20.0
g1
tp78
a(F10.0
F20.0
g1
tp79
a(F11.0
F20.0
g1
tp80
a(F13.0
F20.0
g1
tp81
a(F15.0
F20.0
g1
tp82
a(F16.0
F20.0
g1
tp83
a(F6.0
F21.0
g1
tp84
a(F7.0
F21.0
g1
tp85
a(F8.0
F21.0
g1
tp86
a(F9.0
F21.0
g1
tp87
a(F10.0
F21.0
g1
tp88
a(F11.0
F21.0
g1
tp89
a(F13.0
F21.0
g1
tp90
a(F14.0
F21.0
g1
tp91
a(F15.0
F21.0
g1
tp92
a(F18.0
F21.0
g1
tp93
a(F20.0
F21.0
g1
tp94
a(F9.0
F22.0
g1
tp95
a(F10.0
F22.0
g1
tp96
a(F11.0
F22.0
g1
tp97
a(F13.0
F22.0
g1
tp98
a(F14.0
F22.0
g1
tp99
a(F15.0
F22.0
g1
tp100
a(F16.0
F22.0
g1
tp101
a(F18.0
F22.0
g1
tp102
a(F20.0
F22.0
g1
tp103
a(F8.0
F23.0
g1
tp104
a(F12.0
F23.0
g1
tp105
a(F17.0
F23.0
g1
tp106
a(F21.0
F23.0
g1
tp107
a(F23.0
F24.0
g1
tp108
a.