(lp0
F2.0
aF3.0
aF4.0
aF5.0
aF6.0
aF8.0
aF9.0
aF10.0
aF11.0
aF12.0
aF13.0
aF14.0
aF15.0
aF16.0
aF17.0
aF18.0
aF19.0
aF20.0
a.(lp0
(F3.0
F9.0
S''
p1
tp2
a(F2.0
F10.0
g1
tp3
a(F4.0
F11.0
g1
tp4
a(F5.0
F12.0
g1
tp5
a(F2.0
F13.0
g1
tp6
a(F3.0
F14.0
g1
tp7
a(F2.0
F15.0
g1
tp8
a(F4.0
F15.0
g1
tp9
a(F3.0
F16.0
g1
tp10
a(F4.0
F16.0
g1
tp11
a(F18.0
F17.0
g1
tp12
a(F6.0
F19.0
g1
tp13
a.