(lp0
F2.0
aF3.0
aF4.0
aF5.0
aF6.0
aF7.0
aF8.0
aF9.0
aF10.0
aF11.0
aF12.0
aF13.0
aF14.0
aF15.0
aF16.0
aF17.0
aF18.0
aF19.0
aF20.0
aF21.0
aF22.0
aF23.0
aF25.0
aF26.0
aF27.0
aF28.0
aF29.0
aF30.0
aF31.0
aF32.0
aF33.0
aF34.0
aF35.0
aF36.0
aF37.0
aF38.0
aF39.0
aF40.0
aF41.0
aF42.0
aF43.0
aF44.0
aF45.0
aF46.0
aF47.0
aF48.0
aF49.0
aF50.0
aF51.0
aF52.0
aF53.0
aF54.0
aF55.0
aF56.0
aF57.0
aF58.0
aF59.0
aF60.0
aF61.0
aF62.0
aF63.0
aF64.0
aF65.0
aF66.0
aF67.0
aF68.0
aF69.0
aF70.0
aF71.0
aF72.0
aF73.0
a.(lp0
(F14.0
F64.0
S''
p1
tp2
a(F19.0
F64.0
g1
tp3
a(F62.0
F64.0
g1
tp4
a(F65.0
F64.0
g1
tp5
a(F62.0
F65.0
g1
tp6
a(F65.0
F65.0
g1
tp7
a(F62.0
F66.0
g1
tp8
a(F65.0
F66.0
g1
tp9
a(F21.0
F67.0
g1
tp10
a(F62.0
F67.0
g1
tp11
a(F65.0
F67.0
g1
tp12
a(F14.0
F68.0
g1
tp13
a(F18.0
F68.0
g1
tp14
a(F62.0
F68.0
g1
tp15
a(F65.0
F68.0
g1
tp16
a(F62.0
F69.0
g1
tp17
a(F65.0
F69.0
g1
tp18
a(F62.0
F70.0
g1
tp19
a(F65.0
F70.0
g1
tp20
a(F71.0
F70.0
g1
tp21
a(F22.0
F72.0
g1
tp22
a(F6.0
F23.0
g1
tp23
a(F2.0
F26.0
g1
tp24
a(F2.0
F28.0
g1
tp25
a(F9.0
F28.0
g1
tp26
a(F27.0
F28.0
g1
tp27
a(F2.0
F31.0
g1
tp28
a(F3.0
F31.0
g1
tp29
a(F2.0
F35.0
g1
tp30
a(F3.0
F35.0
g1
tp31
a(F36.0
F37.0
g1
tp32
a(F5.0
F38.0
g1
tp33
a(F15.0
F38.0
g1
tp34
a(F36.0
F38.0
g1
tp35
a(F36.0
F39.0
g1
tp36
a(F36.0
F40.0
g1
tp37
a(F4.0
F41.0
g1
tp38
a(F36.0
F41.0
g1
tp39
a(F17.0
F42.0
g1
tp40
a(F36.0
F42.0
g1
tp41
a(F39.0
F42.0
g1
tp42
a(F3.0
F45.0
g1
tp43
a(F15.0
F45.0
g1
tp44
a(F3.0
F47.0
g1
tp45
a(F12.0
F47.0
g1
tp46
a(F18.0
F47.0
g1
tp47
a(F46.0
F47.0
g1
tp48
a(F3.0
F50.0
g1
tp49
a(F15.0
F50.0
g1
tp50
a(F3.0
F52.0
g1
tp51
a(F12.0
F52.0
g1
tp52
a(F18.0
F52.0
g1
tp53
a(F51.0
F52.0
g1
tp54
a(F6.0
F54.0
g1
tp55
a(F5.0
F56.0
g1
tp56
a(F15.0
F56.0
g1
tp57
a(F5.0
F58.0
g1
tp58
a(F57.0
F58.0
g1
tp59
a(F62.0
F60.0
g1
tp60
a(F65.0
F60.0
g1
tp61
a(F2.0
F61.0
g1
tp62
a(F5.0
F61.0
g1
tp63
a(F62.0
F61.0
g1
tp64
a(F65.0
F61.0
g1
tp65
a(F62.0
F62.0
g1
tp66
a(F65.0
F62.0
g1
tp67
a(F62.0
F63.0
g1
tp68
a(F65.0
F63.0
g1
tp69
a.