(lp0
F2.0
aF3.0
aF4.0
aF5.0
aF6.0
aF7.0
aF8.0
aF9.0
aF10.0
aF11.0
aF12.0
aF13.0
aF14.0
aF15.0
aF17.0
aF18.0
aF19.0
aF20.0
aF21.0
aF22.0
aF23.0
aF24.0
aF25.0
aF26.0
aF27.0
aF28.0
aF29.0
aF30.0
aF31.0
aF32.0
aF33.0
aF34.0
aF35.0
aF36.0
aF37.0
aF38.0
aF39.0
aF40.0
aF41.0
aF42.0
aF43.0
aF44.0
aF45.0
aF46.0
aF47.0
aF48.0
a.(lp0
(F13.0
F32.0
S''
p1
tp2
a(F26.0
F32.0
g1
tp3
a(F29.0
F32.0
g1
tp4
a(F26.0
F33.0
g1
tp5
a(F29.0
F33.0
g1
tp6
a(F4.0
F36.0
g1
tp7
a(F6.0
F36.0
g1
tp8
a(F6.0
F38.0
g1
tp9
a(F7.0
F38.0
g1
tp10
a(F8.0
F38.0
g1
tp11
a(F37.0
F38.0
g1
tp12
a(F42.0
F40.0
g1
tp13
a(F5.0
F41.0
g1
tp14
a(F6.0
F41.0
g1
tp15
a(F42.0
F41.0
g1
tp16
a(F42.0
F42.0
g1
tp17
a(F6.0
F43.0
g1
tp18
a(F7.0
F43.0
g1
tp19
a(F8.0
F43.0
g1
tp20
a(F9.0
F43.0
g1
tp21
a(F42.0
F43.0
g1
tp22
a(F6.0
F44.0
g1
tp23
a(F7.0
F44.0
g1
tp24
a(F8.0
F44.0
g1
tp25
a(F10.0
F44.0
g1
tp26
a(F42.0
F44.0
g1
tp27
a(F42.0
F45.0
g1
tp28
a(F42.0
F46.0
g1
tp29
a(F15.0
F47.0
g1
tp30
a(F2.0
F18.0
g1
tp31
a(F4.0
F19.0
g1
tp32
a(F5.0
F20.0
g1
tp33
a(F2.0
F23.0
g1
tp34
a(F14.0
F23.0
g1
tp35
a(F22.0
F23.0
g1
tp36
a(F2.0
F24.0
g1
tp37
a(F22.0
F24.0
g1
tp38
a(F14.0
F25.0
g1
tp39
a(F26.0
F27.0
g1
tp40
a(F29.0
F27.0
g1
tp41
a(F4.0
F28.0
g1
tp42
a(F6.0
F28.0
g1
tp43
a(F26.0
F28.0
g1
tp44
a(F29.0
F28.0
g1
tp45
a(F26.0
F29.0
g1
tp46
a(F29.0
F29.0
g1
tp47
a(F26.0
F30.0
g1
tp48
a(F29.0
F30.0
g1
tp49
a(F4.0
F31.0
g1
tp50
a(F6.0
F31.0
g1
tp51
a(F26.0
F31.0
g1
tp52
a.